target datalayout = "e-m:e-p270:32:32-p271:32:32-p272:64:64-i64:64-i128:128-f80:128-n8:16:32:64-S128"
target triple = "x86_64-pc-linux-gnu"

%struct.diff_opt_t = type { i32, i32, i32, i32, i32, i32, i32, i32, i32, double, i32, i32, double, i8, i32, i32, i32, i32, i32, i32, i32, i32, ptr, ptr, i32, i64, i32, i64, i64, i32, i64, i64, [32 x i64], [32 x i64], [32 x i64], [32 x i64], [32 x i64], [32 x i64], [2 x ptr], [2 x ptr], [2 x %struct.h5tools_vol_info_t], [2 x %struct.h5tools_vfd_info_t], [2 x i8], [2 x i8], i64 }
%struct.h5tools_vol_info_t = type { i32, ptr, %union.anon }
%union.anon = type { ptr }
%struct.h5tools_vfd_info_t = type { i32, ptr, %union.anon.0 }
%union.anon.0 = type { ptr }

@.str = private unnamed_addr constant [2 x i8] c"\0A\00", align 1
@.str.1 = private unnamed_addr constant [21 x i8] c"%-7s: <%s> and <%s>\0A\00", align 1

; Function Attrs: nounwind uwtable
define void @do_print_objname(ptr noundef %0, ptr noundef %1, ptr noundef %2, ptr noundef %3) #1 {
  %5 = alloca ptr, align 8
  %6 = alloca ptr, align 8
  %7 = alloca ptr, align 8
  %8 = alloca ptr, align 8
  store ptr %0, ptr %5, align 8, !tbaa !16
  store ptr %1, ptr %6, align 8, !tbaa !16
  store ptr %2, ptr %7, align 8, !tbaa !16
  store ptr %3, ptr %8, align 8, !tbaa !3
  %9 = load ptr, ptr %8, align 8, !tbaa !3
  %10 = getelementptr inbounds nuw %struct.diff_opt_t, ptr %9, i32 0, i32 3
  %11 = load i32, ptr %10, align 4, !tbaa !18
  %12 = icmp sge i32 %11, 1
  br i1 %12, label %13, label %14

13:                                               ; preds = %4
  call void (ptr, ...) @parallel_print(ptr noundef @.str)
  br label %14

14:                                               ; preds = %13, %4
  %15 = load ptr, ptr %5, align 8, !tbaa !16
  %16 = load ptr, ptr %6, align 8, !tbaa !16
  %17 = load ptr, ptr %7, align 8, !tbaa !16
  call void (ptr, ...) @parallel_print(ptr noundef @.str.1, ptr noundef %15, ptr noundef %16, ptr noundef %17)
  ret void
}