; Function Attrs: nounwind uwtable
define void @do_print_objname(ptr noundef %0, ptr noundef %1, ptr noundef %2, ptr noundef readonly captures(none) %3) local_unnamed_addr #1 {
  %5 = getelementptr inbounds nuw i8, ptr %3, i64 12
  %6 = load i32, ptr %5, align 4, !tbaa !14
  %7 = icmp sgt i32 %6, 0
  br i1 %7, label %8, label %9

8:                                                ; preds = %4
  tail call void (ptr, ...) @parallel_print(ptr noundef nonnull @.str) #14
  br label %9

9:                                                ; preds = %8, %4
  tail call void (ptr, ...) @parallel_print(ptr noundef nonnull @.str.1, ptr noundef %0, ptr noundef %1, ptr noundef %2) #14
  ret void
}